target datalayout = "e-m:e-p270:32:32-p271:32:32-p272:64:64-i64:64-i128:128-f80:128-n8:16:32:64-S128"
target triple = "x86_64-pc-linux-gnu"

%struct.rb_data_type_struct = type { ptr, %struct.anon.2, ptr, ptr, i64 }
%struct.anon.2 = type { ptr, ptr, ptr, ptr, [1 x ptr] }
%struct.zstream = type { i64, i64, i64, i64, %struct.z_stream_s, ptr }
%struct.z_stream_s = type { ptr, i32, i64, ptr, i32, i64, ptr, ptr, ptr, ptr, ptr, i32, i64, i64 }

@cZError = internal global i64 0, align 8
@zstream_data_type = internal constant %struct.rb_data_type_struct { ptr @.str.147, %struct.anon.2 { ptr @zstream_mark, ptr @zstream_free, ptr @zstream_memsize, ptr null, [1 x ptr] zeroinitializer }, ptr null, ptr null, i64 1 }, align 8
@.str.150 = private unnamed_addr constant [20 x i8] c"stream is not ready\00", align 1

; Function Attrs: inlinehint nounwind sspstrong willreturn memory(none) uwtable
define internal zeroext i1 @RB_NIL_P(i64 noundef %0) #5 {
  %2 = alloca i64, align 8
  store i64 %0, ptr %2, align 8, !tbaa !6
  %3 = load i64, ptr %2, align 8, !tbaa !6
  %4 = icmp eq i64 %3, 4
  ret i1 %4
}

; Function Attrs: nounwind sspstrong uwtable
define internal ptr @get_zstream(i64 noundef %0) #0 {
  %2 = alloca i64, align 8
  %3 = alloca ptr, align 8
  store i64 %0, ptr %2, align 8, !tbaa !6
  call void @llvm.lifetime.start.p0(i64 8, ptr %3) #23
  %4 = load i64, ptr %2, align 8, !tbaa !6
  %5 = call ptr @rb_check_typeddata(i64 noundef %4, ptr noundef @zstream_data_type)
  store ptr %5, ptr %3, align 8, !tbaa !21
  %6 = load ptr, ptr %3, align 8, !tbaa !21
  %7 = getelementptr inbounds nuw %struct.zstream, ptr %6, i32 0, i32 0
  %8 = load i64, ptr %7, align 8, !tbaa !33
  %9 = and i64 %8, 1
  %10 = icmp ne i64 %9, 0
  br i1 %10, label %13, label %11

11:                                               ; preds = %1
  %12 = load i64, ptr @cZError, align 8, !tbaa !6
  call void (i64, ptr, ...) @rb_raise(i64 noundef %12, ptr noundef @.str.150) #26
  unreachable

13:                                               ; preds = %1
  %14 = load ptr, ptr %3, align 8, !tbaa !21
  call void @llvm.lifetime.end.p0(i64 8, ptr %3) #23
  ret ptr %14
}

; Function Attrs: nounwind sspstrong uwtable
define internal i64 @rb_deflate_init_copy(i64 noundef %0, i64 noundef %1) #0 {
  %3 = alloca i64, align 8
  %4 = alloca i64, align 8
  %5 = alloca i64, align 8
  %6 = alloca ptr, align 8
  %7 = alloca ptr, align 8
  %8 = alloca i32, align 4
  %9 = alloca i32, align 4
  store i64 %0, ptr %4, align 8, !tbaa !6
  store i64 %1, ptr %5, align 8, !tbaa !6
  call void @llvm.lifetime.start.p0(i64 8, ptr %6) #23
  call void @llvm.lifetime.start.p0(i64 8, ptr %7) #23
  call void @llvm.lifetime.start.p0(i64 4, ptr %8) #23
  %10 = load i64, ptr %4, align 8, !tbaa !6
  %11 = call ptr @rb_check_typeddata(i64 noundef %10, ptr noundef @zstream_data_type)
  store ptr %11, ptr %6, align 8, !tbaa !21
  %12 = load i64, ptr %5, align 8, !tbaa !6
  %13 = call ptr @get_zstream(i64 noundef %12)
  store ptr %13, ptr %7, align 8, !tbaa !21
  %14 = load ptr, ptr %6, align 8, !tbaa !21
  %15 = load ptr, ptr %7, align 8, !tbaa !21
  %16 = icmp eq ptr %14, %15
  br i1 %16, label %17, label %19

17:                                               ; preds = %2
  %18 = load i64, ptr %4, align 8, !tbaa !6
  store i64 %18, ptr %3, align 8
  store i32 1, ptr %9, align 4
  br label %64

19:                                               ; preds = %2
  %20 = load ptr, ptr %6, align 8, !tbaa !21
  %21 = getelementptr inbounds nuw %struct.zstream, ptr %20, i32 0, i32 4
  %22 = load ptr, ptr %7, align 8, !tbaa !21
  %23 = getelementptr inbounds nuw %struct.zstream, ptr %22, i32 0, i32 4
  %24 = call i32 @deflateCopy(ptr noundef %21, ptr noundef %23)
  store i32 %24, ptr %8, align 4, !tbaa !10
  %25 = load i32, ptr %8, align 4, !tbaa !10
  %26 = icmp ne i32 %25, 0
  br i1 %26, label %27, label %29

27:                                               ; preds = %19
  %28 = load i32, ptr %8, align 4, !tbaa !10
  call void @raise_zlib_error(i32 noundef %28, ptr noundef null) #26
  unreachable

29:                                               ; preds = %19
  %30 = load ptr, ptr %7, align 8, !tbaa !21
  %31 = getelementptr inbounds nuw %struct.zstream, ptr %30, i32 0, i32 2
  %32 = load i64, ptr %31, align 8, !tbaa !28
  %33 = call zeroext i1 @RB_NIL_P(i64 noundef %32) #24
  br i1 %33, label %34, label %35

34:                                               ; preds = %29
  br label %40

35:                                               ; preds = %29
  %36 = load ptr, ptr %7, align 8, !tbaa !21
  %37 = getelementptr inbounds nuw %struct.zstream, ptr %36, i32 0, i32 2
  %38 = load i64, ptr %37, align 8, !tbaa !28
  %39 = call i64 @rb_str_dup(i64 noundef %38)
  br label %40

40:                                               ; preds = %35, %34
  %41 = phi i64 [ 4, %34 ], [ %39, %35 ]
  %42 = load ptr, ptr %6, align 8, !tbaa !21
  %43 = getelementptr inbounds nuw %struct.zstream, ptr %42, i32 0, i32 2
  store i64 %41, ptr %43, align 8, !tbaa !28
  %44 = load ptr, ptr %7, align 8, !tbaa !21
  %45 = getelementptr inbounds nuw %struct.zstream, ptr %44, i32 0, i32 1
  %46 = load i64, ptr %45, align 8, !tbaa !35
  %47 = call zeroext i1 @RB_NIL_P(i64 noundef %46) #24
  br i1 %47, label %48, label %49

48:                                               ; preds = %40
  br label %54

49:                                               ; preds = %40
  %50 = load ptr, ptr %7, align 8, !tbaa !21
  %51 = getelementptr inbounds nuw %struct.zstream, ptr %50, i32 0, i32 1
  %52 = load i64, ptr %51, align 8, !tbaa !35
  %53 = call i64 @rb_str_dup(i64 noundef %52)
  br label %54

54:                                               ; preds = %49, %48
  %55 = phi i64 [ 4, %48 ], [ %53, %49 ]
  %56 = load ptr, ptr %6, align 8, !tbaa !21
  %57 = getelementptr inbounds nuw %struct.zstream, ptr %56, i32 0, i32 1
  store i64 %55, ptr %57, align 8, !tbaa !35
  %58 = load ptr, ptr %7, align 8, !tbaa !21
  %59 = getelementptr inbounds nuw %struct.zstream, ptr %58, i32 0, i32 0
  %60 = load i64, ptr %59, align 8, !tbaa !33
  %61 = load ptr, ptr %6, align 8, !tbaa !21
  %62 = getelementptr inbounds nuw %struct.zstream, ptr %61, i32 0, i32 0
  store i64 %60, ptr %62, align 8, !tbaa !33
  %63 = load i64, ptr %4, align 8, !tbaa !6
  store i64 %63, ptr %3, align 8
  store i32 1, ptr %9, align 4
  br label %64

64:                                               ; preds = %54, %17
  call void @llvm.lifetime.end.p0(i64 4, ptr %8) #23
  call void @llvm.lifetime.end.p0(i64 8, ptr %7) #23
  call void @llvm.lifetime.end.p0(i64 8, ptr %6) #23
  %65 = load i64, ptr %3, align 8
  ret i64 %65
}