; Function Attrs: nounwind sspstrong uwtable
define internal noundef i64 @rb_deflate_init_copy(i64 noundef returned %0, i64 noundef %1) #0 {
  %3 = tail call ptr @rb_check_typeddata(i64 noundef %0, ptr noundef nonnull @zstream_data_type) #18
  %4 = tail call ptr @rb_check_typeddata(i64 noundef %1, ptr noundef nonnull @zstream_data_type) #18
  %5 = load i64, ptr %4, align 8, !tbaa !42
  %6 = and i64 %5, 1
  %.not.i = icmp eq i64 %6, 0
  br i1 %.not.i, label %7, label %get_zstream.exit

7:                                                ; preds = %2
  %8 = load i64, ptr @cZError, align 8, !tbaa !6
  tail call void (i64, ptr, ...) @rb_raise(i64 noundef %8, ptr noundef nonnull @.str.150) #19
  unreachable

get_zstream.exit:                                 ; preds = %2
  %9 = icmp eq ptr %3, %4
  br i1 %9, label %33, label %10

10:                                               ; preds = %get_zstream.exit
  %11 = getelementptr inbounds nuw i8, ptr %3, i64 32
  %12 = getelementptr inbounds nuw i8, ptr %4, i64 32
  %13 = tail call i32 @deflateCopy(ptr noundef nonnull %11, ptr noundef nonnull %12) #18
  %.not = icmp eq i32 %13, 0
  br i1 %.not, label %15, label %14

14:                                               ; preds = %10
  tail call fastcc void @raise_zlib_error(i32 noundef %13, ptr noundef null) #20
  unreachable

15:                                               ; preds = %10
  %16 = getelementptr inbounds nuw i8, ptr %4, i64 16
  %17 = load i64, ptr %16, align 8, !tbaa !51
  %18 = icmp eq i64 %17, 4
  br i1 %18, label %21, label %19

19:                                               ; preds = %15
  %20 = tail call i64 @rb_str_dup(i64 noundef %17) #18
  br label %21

21:                                               ; preds = %15, %19
  %22 = phi i64 [ %20, %19 ], [ 4, %15 ]
  %23 = getelementptr inbounds nuw i8, ptr %3, i64 16
  store i64 %22, ptr %23, align 8, !tbaa !51
  %24 = getelementptr inbounds nuw i8, ptr %4, i64 8
  %25 = load i64, ptr %24, align 8, !tbaa !43
  %26 = icmp eq i64 %25, 4
  br i1 %26, label %29, label %27

27:                                               ; preds = %21
  %28 = tail call i64 @rb_str_dup(i64 noundef %25) #18
  br label %29

29:                                               ; preds = %21, %27
  %30 = phi i64 [ %28, %27 ], [ 4, %21 ]
  %31 = getelementptr inbounds nuw i8, ptr %3, i64 8
  store i64 %30, ptr %31, align 8, !tbaa !43
  %32 = load i64, ptr %4, align 8, !tbaa !42
  store i64 %32, ptr %3, align 8, !tbaa !42
  br label %33

33:                                               ; preds = %get_zstream.exit, %29
  ret i64 %0
}